{
	malloc uninit from brk/sbrk cnd
	Memcheck:Cond
	fun:malloc_hook_ini
	fun:_dl_get_origin
	fun:_dl_non_dynamic_init
	fun:__libc_init_first
}
{
	tcache uninit from brk/sbrk cnd
	Memcheck:Cond
	fun:tcache_init.part.0
	fun:malloc_hook_ini
	fun:_dl_get_origin
	fun:_dl_non_dynamic_init
	fun:__libc_init_first
}
{
	tcache/malloc uninit from brk/sbrk cnd
	Memcheck:Cond
	fun:_int_malloc
	fun:tcache_init.part.0
	fun:malloc_hook_ini
	fun:_dl_get_origin
	fun:_dl_non_dynamic_init
	fun:__libc_init_first
}
{
	malloc uninit for dl stuff cnd
	Memcheck:Cond
	fun:malloc
	fun:_dl_important_hwcaps
	fun:_dl_init_paths
	fun:_dl_non_dynamic_init
	fun:__libc_init_first
}
{
	malloc uninit less dl stuff cnd
	Memcheck:Cond
	fun:malloc
	fun:_dl_init_paths
	fun:_dl_non_dynamic_init
	fun:__libc_init_first
	fun:(below main)
}
{
	strsep uninit cnd
	Memcheck:Cond
	fun:__strcspn_sse42
	fun:strsep
	fun:fillin_rpath
	fun:_dl_init_paths
	fun:_dl_non_dynamic_init
	fun:__libc_init_first
}
{
	strchr uninit of 8
	Memcheck:Value8
	fun:__strchr_avx2
	fun:expand_dynamic_string_token
	fun:fillin_rpath
	fun:_dl_init_paths
	fun:_dl_non_dynamic_init
	fun:__libc_init_first
}
{
	strdup uninit cnd
	Memcheck:Cond
	fun:malloc
	fun:strdup
	fun:fillin_rpath
	fun:_dl_init_paths
	fun:_dl_non_dynamic_init
	fun:__libc_init_first
}
{
	strdup uninit of 8
	Memcheck:Value8
	fun:malloc
	fun:strdup
	fun:fillin_rpath
	fun:_dl_init_paths
	fun:_dl_non_dynamic_init
	fun:__libc_init_first
}
{
	int malloc uninit cnd
	Memcheck:Cond
	fun:_int_malloc
	fun:malloc
	fun:strdup
	fun:fillin_rpath
	fun:_dl_init_paths
	fun:_dl_non_dynamic_init
	fun:__libc_init_first
}
{
   int malloc uninit of 8
   Memcheck:Value8
   fun:_int_malloc
   fun:malloc
   fun:strdup
   fun:fillin_rpath
   fun:_dl_init_paths
   fun:_dl_non_dynamic_init
   fun:__libc_init_first
}
{
   memcpy uninit cnd
   Memcheck:Cond
   fun:__memcpy_avx_unaligned_erms
   fun:fillin_rpath
   fun:_dl_init_paths
   fun:_dl_non_dynamic_init
   fun:__libc_init_first
}
{
   memcpy uninit of 8
   Memcheck:Value8
   fun:__memcpy_avx_unaligned_erms
   fun:fillin_rpath
   fun:_dl_init_paths
   fun:_dl_non_dynamic_init
   fun:__libc_init_first
}
{
   fillin rpath uninit cnd
   Memcheck:Cond
   fun:fillin_rpath
   fun:_dl_init_paths
   fun:_dl_non_dynamic_init
   fun:__libc_init_first
}
{
   fillin rpath uninit of 8
   Memcheck:Value8
   fun:fillin_rpath
   fun:_dl_init_paths
   fun:_dl_non_dynamic_init
   fun:__libc_init_first
}
{
   malloc/fillin uninit cnd
   Memcheck:Cond
   fun:malloc
   fun:fillin_rpath
   fun:_dl_init_paths
   fun:_dl_non_dynamic_init
   fun:__libc_init_first
}
{
   malloc/fillin uninit of 8
   Memcheck:Value8
   fun:malloc
   fun:fillin_rpath
   fun:_dl_init_paths
   fun:_dl_non_dynamic_init
   fun:__libc_init_first
}
{
   int malloc/fillin uninit cnd
   Memcheck:Cond
   fun:_int_malloc
   fun:malloc
   fun:fillin_rpath
   fun:_dl_init_paths
   fun:_dl_non_dynamic_init
   fun:__libc_init_first
}
{
   int malloc/fillin uninit of 8
   Memcheck:Value8
   fun:_int_malloc
   fun:malloc
   fun:fillin_rpath
   fun:_dl_init_paths
   fun:_dl_non_dynamic_init
   fun:__libc_init_first
}
{
   int free/fillin uninit cnd
   Memcheck:Cond
   fun:_int_free
   fun:fillin_rpath
   fun:_dl_init_paths
   fun:_dl_non_dynamic_init
   fun:__libc_init_first
}
{
   int free/fillin uninit of 8
   Memcheck:Value8
   fun:_int_free
   fun:fillin_rpath
   fun:_dl_init_paths
   fun:_dl_non_dynamic_init
   fun:__libc_init_first
}
{
   at exit uninit cnd
   Memcheck:Cond
   fun:__cxa_atexit
}
{
   at exit uninit of 8
   Memcheck:Value8
   fun:__cxa_atexit
}
{
   global alloc uninit cnd
   Memcheck:Cond
   fun:malloc
   fun:_GLOBAL__sub_I_eh_alloc.cc
   fun:__libc_csu_init
}
{
   global alloc uninit of 8
   Memcheck:Value8
   fun:malloc
   fun:_GLOBAL__sub_I_eh_alloc.cc
   fun:__libc_csu_init
}
{
   int global alloc uninit cnd
   Memcheck:Cond
   fun:_int_malloc
   fun:malloc
   fun:_GLOBAL__sub_I_eh_alloc.cc
   fun:__libc_csu_init
}
{
   int global alloc uninit of 8
   Memcheck:Value8
   fun:_int_malloc
   fun:malloc
   fun:_GLOBAL__sub_I_eh_alloc.cc
   fun:__libc_csu_init
}
{
   global alloc uninit cnd
   Memcheck:Cond
   fun:_GLOBAL__sub_I_eh_alloc.cc
   fun:__libc_csu_init
}
{
   global alloc uninit of 8
   Memcheck:Value8
   fun:_GLOBAL__sub_I_eh_alloc.cc
   fun:__libc_csu_init
}
{
   fwrite uninit cnd
   Memcheck:Cond
   fun:fwrite
   fun:_ZN3fmt2v86vprintEP8_IO_FILENS0_17basic_string_viewIcEENS0_17basic_format_argsINS0_20basic_format_contextINS0_8appenderEcEEEE
   fun:print<>
   fun:_ZN4zade6ResultIjNSt7__cxx1112basic_stringIcSt11char_traitsIcESaIcEEEEC1IJS6_ELPv0EEEDpOT_
}
{
   fwrite uninit of 8
   Memcheck:Value8
   fun:fwrite
   fun:_ZN3fmt2v86vprintEP8_IO_FILENS0_17basic_string_viewIcEENS0_17basic_format_argsINS0_20basic_format_contextINS0_8appenderEcEEEE
   fun:print<>
   fun:_ZN4zade6ResultIjNSt7__cxx1112basic_stringIcSt11char_traitsIcESaIcEEEEC1IJS6_ELPv0EEEDpOT_
}
{
   io int malloc uninit cnd
   Memcheck:Cond
   fun:_int_malloc
   fun:malloc
   fun:_IO_file_doallocate
   fun:_IO_doallocbuf
   fun:_IO_file_overflow
   fun:_IO_file_xsputn
   fun:fwrite
   fun:_ZN3fmt2v86vprintEP8_IO_FILENS0_17basic_string_viewIcEENS0_17basic_format_argsINS0_20basic_format_contextINS0_8appenderEcEEEE
   fun:print<>
   fun:_ZN4zade6ResultIjNSt7__cxx1112basic_stringIcSt11char_traitsIcESaIcEEEEC1IJS6_ELPv0EEEDpOT_
}
{
   io int malloc uninit of 8
   Memcheck:Value8
   fun:_int_malloc
   fun:malloc
   fun:_IO_file_doallocate
   fun:_IO_doallocbuf
   fun:_IO_file_overflow
   fun:_IO_file_xsputn
   fun:fwrite
   fun:_ZN3fmt2v86vprintEP8_IO_FILENS0_17basic_string_viewIcEENS0_17basic_format_argsINS0_20basic_format_contextINS0_8appenderEcEEEE
   fun:print<>
   fun:_ZN4zade6ResultIjNSt7__cxx1112basic_stringIcSt11char_traitsIcESaIcEEEEC1IJS6_ELPv0EEEDpOT_
}
{
   io malloc uninit cnd
   Memcheck:Cond
   fun:malloc
   fun:_IO_file_doallocate
   fun:_IO_doallocbuf
   fun:_IO_file_overflow
   fun:_IO_file_xsputn
   fun:fwrite
   fun:_ZN3fmt2v86vprintEP8_IO_FILENS0_17basic_string_viewIcEENS0_17basic_format_argsINS0_20basic_format_contextINS0_8appenderEcEEEE
   fun:print<>
   fun:_ZN4zade6ResultIjNSt7__cxx1112basic_stringIcSt11char_traitsIcESaIcEEEEC1IJS6_ELPv0EEEDpOT_
}
{
   io malloc uninit of 8
   Memcheck:Value8
   fun:malloc
   fun:_IO_file_doallocate
   fun:_IO_doallocbuf
   fun:_IO_file_overflow
   fun:_IO_file_xsputn
   fun:fwrite
   fun:_ZN3fmt2v86vprintEP8_IO_FILENS0_17basic_string_viewIcEENS0_17basic_format_argsINS0_20basic_format_contextINS0_8appenderEcEEEE
   fun:print<>
   fun:_ZN4zade6ResultIjNSt7__cxx1112basic_stringIcSt11char_traitsIcESaIcEEEEC1IJS6_ELPv0EEEDpOT_
}
{
   file doalloc uninit cnd
   Memcheck:Cond
   fun:_IO_file_doallocate
   fun:_IO_doallocbuf
   fun:_IO_file_overflow
   fun:_IO_file_xsputn
   fun:fwrite
   fun:_ZN3fmt2v86vprintEP8_IO_FILENS0_17basic_string_viewIcEENS0_17basic_format_argsINS0_20basic_format_contextINS0_8appenderEcEEEE
   fun:print<>
   fun:_ZN4zade6ResultIjNSt7__cxx1112basic_stringIcSt11char_traitsIcESaIcEEEEC1IJS6_ELPv0EEEDpOT_
}
{
   file doalloc uninit of 8
   Memcheck:Value8
   fun:_IO_file_doallocate
   fun:_IO_doallocbuf
   fun:_IO_file_overflow
   fun:_IO_file_xsputn
   fun:fwrite
   fun:_ZN3fmt2v86vprintEP8_IO_FILENS0_17basic_string_viewIcEENS0_17basic_format_argsINS0_20basic_format_contextINS0_8appenderEcEEEE
   fun:print<>
   fun:_ZN4zade6ResultIjNSt7__cxx1112basic_stringIcSt11char_traitsIcESaIcEEEEC1IJS6_ELPv0EEEDpOT_
}
{
   io overflow uninit cnd
   Memcheck:Cond
   fun:_IO_file_overflow
   fun:_IO_file_xsputn
   fun:fwrite
   fun:_ZN3fmt2v86vprintEP8_IO_FILENS0_17basic_string_viewIcEENS0_17basic_format_argsINS0_20basic_format_contextINS0_8appenderEcEEEE
   fun:print<>
   fun:_ZN4zade6ResultIjNSt7__cxx1112basic_stringIcSt11char_traitsIcESaIcEEEEC1IJS6_ELPv0EEEDpOT_
}
{
   io dowrite uninit cnd
   Memcheck:Cond
   fun:_IO_do_write
   fun:_IO_file_xsputn
   fun:fwrite
   fun:_ZN3fmt2v86vprintEP8_IO_FILENS0_17basic_string_viewIcEENS0_17basic_format_argsINS0_20basic_format_contextINS0_8appenderEcEEEE
   fun:print<>
   fun:_ZN4zade6ResultIjNSt7__cxx1112basic_stringIcSt11char_traitsIcESaIcEEEEC1IJS6_ELPv0EEEDpOT_
}
{
   io file xsputn uninit cnd
   Memcheck:Cond
   fun:_IO_file_xsputn
   fun:fwrite
   fun:_ZN3fmt2v86vprintEP8_IO_FILENS0_17basic_string_viewIcEENS0_17basic_format_argsINS0_20basic_format_contextINS0_8appenderEcEEEE
   fun:print<>
   fun:_ZN4zade6ResultIjNSt7__cxx1112basic_stringIcSt11char_traitsIcESaIcEEEEC1IJS6_ELPv0EEEDpOT_
}
{
   io file xsputn uninit of 8
   Memcheck:Value8
   fun:_IO_file_xsputn
   fun:fwrite
   fun:_ZN3fmt2v86vprintEP8_IO_FILENS0_17basic_string_viewIcEENS0_17basic_format_argsINS0_20basic_format_contextINS0_8appenderEcEEEE
   fun:print<>
   fun:_ZN4zade6ResultIjNSt7__cxx1112basic_stringIcSt11char_traitsIcESaIcEEEEC1IJS6_ELPv0EEEDpOT_
}
{
   io overflow uninit cnd
   Memcheck:Cond
   fun:_IO_file_overflow
   fun:_IO_default_xsputn
   fun:_IO_file_xsputn
   fun:fwrite
   fun:_ZN3fmt2v86vprintEP8_IO_FILENS0_17basic_string_viewIcEENS0_17basic_format_argsINS0_20basic_format_contextINS0_8appenderEcEEEE
   fun:print<>
   fun:_ZN4zade6ResultIjNSt7__cxx1112basic_stringIcSt11char_traitsIcESaIcEEEEC1IJS6_ELPv0EEEDpOT_
}
{
   io overflow uninit of 8
   Memcheck:Value8
   fun:_IO_file_overflow
   fun:_IO_default_xsputn
   fun:_IO_file_xsputn
   fun:fwrite
   fun:_ZN3fmt2v86vprintEP8_IO_FILENS0_17basic_string_viewIcEENS0_17basic_format_argsINS0_20basic_format_contextINS0_8appenderEcEEEE
   fun:print<>
   fun:_ZN4zade6ResultIjNSt7__cxx1112basic_stringIcSt11char_traitsIcESaIcEEEEC1IJS6_ELPv0EEEDpOT_
}
{
   io default uninit cnd
   Memcheck:Cond
   fun:_IO_default_xsputn
   fun:_IO_file_xsputn
   fun:fwrite
   fun:_ZN3fmt2v86vprintEP8_IO_FILENS0_17basic_string_viewIcEENS0_17basic_format_argsINS0_20basic_format_contextINS0_8appenderEcEEEE
   fun:print<>
   fun:_ZN4zade6ResultIjNSt7__cxx1112basic_stringIcSt11char_traitsIcESaIcEEEEC1IJS6_ELPv0EEEDpOT_
}
{
   io default uninit of 8
   Memcheck:Value8
   fun:_IO_default_xsputn
   fun:_IO_file_xsputn
   fun:fwrite
   fun:_ZN3fmt2v86vprintEP8_IO_FILENS0_17basic_string_viewIcEENS0_17basic_format_argsINS0_20basic_format_contextINS0_8appenderEcEEEE
   fun:print<>
   fun:_ZN4zade6ResultIjNSt7__cxx1112basic_stringIcSt11char_traitsIcESaIcEEEEC1IJS6_ELPv0EEEDpOT_
}
{
   io do write uninit cnd
   Memcheck:Cond
   fun:_IO_do_write
   fun:_IO_file_overflow
   fun:_IO_default_xsputn
   fun:_IO_file_xsputn
   fun:fwrite
   fun:_ZN3fmt2v86vprintEP8_IO_FILENS0_17basic_string_viewIcEENS0_17basic_format_argsINS0_20basic_format_contextINS0_8appenderEcEEEE
   fun:print<>
   fun:_ZN4zade6ResultIjNSt7__cxx1112basic_stringIcSt11char_traitsIcESaIcEEEEC1IJS6_ELPv0EEEDpOT_
}
{
   <insert_a_suppression_name_here>
   Memcheck:Cond
   fun:_IO_file_write
   fun:_IO_do_write
   fun:_IO_file_overflow
   fun:_IO_default_xsputn
   fun:_IO_file_xsputn
   fun:fwrite
   fun:_ZN3fmt2v86vprintEP8_IO_FILENS0_17basic_string_viewIcEENS0_17basic_format_argsINS0_20basic_format_contextINS0_8appenderEcEEEE
   fun:print<>
   fun:_ZN4zade6ResultIjNSt7__cxx1112basic_stringIcSt11char_traitsIcESaIcEEEEC1IJS6_ELPv0EEEDpOT_
}
{
   <insert_a_suppression_name_here>
   Memcheck:Cond
   fun:write
   fun:_IO_file_write
   fun:_IO_do_write
   fun:_IO_file_overflow
   fun:_IO_default_xsputn
   fun:_IO_file_xsputn
   fun:fwrite
   fun:_ZN3fmt2v86vprintEP8_IO_FILENS0_17basic_string_viewIcEENS0_17basic_format_argsINS0_20basic_format_contextINS0_8appenderEcEEEE
   fun:print<>
   fun:_ZN4zade6ResultIjNSt7__cxx1112basic_stringIcSt11char_traitsIcESaIcEEEEC1IJS6_ELPv0EEEDpOT_
}
{
   <insert_a_suppression_name_here>
   Memcheck:Param
   write(buf)
   fun:write
   fun:_IO_file_write
   fun:_IO_do_write
   fun:_IO_file_overflow
   fun:_IO_default_xsputn
   fun:_IO_file_xsputn
   fun:fwrite
   fun:_ZN3fmt2v86vprintEP8_IO_FILENS0_17basic_string_viewIcEENS0_17basic_format_argsINS0_20basic_format_contextINS0_8appenderEcEEEE
   fun:print<>
   fun:_ZN4zade6ResultIjNSt7__cxx1112basic_stringIcSt11char_traitsIcESaIcEEEEC1IJS6_ELPv0EEEDpOT_
}
{
   <insert_a_suppression_name_here>
   Memcheck:Param
   write(count)
   fun:write
   fun:_IO_file_write
   fun:_IO_do_write
   fun:_IO_file_overflow
   fun:_IO_default_xsputn
   fun:_IO_file_xsputn
   fun:fwrite
   fun:_ZN3fmt2v86vprintEP8_IO_FILENS0_17basic_string_viewIcEENS0_17basic_format_argsINS0_20basic_format_contextINS0_8appenderEcEEEE
   fun:print<>
   fun:_ZN4zade6ResultIjNSt7__cxx1112basic_stringIcSt11char_traitsIcESaIcEEEEC1IJS6_ELPv0EEEDpOT_
}
{
   <insert_a_suppression_name_here>
   Memcheck:Cond
   fun:fwrite
   fun:_ZN3fmt2v86vprintEP8_IO_FILENS0_17basic_string_viewIcEENS0_17basic_format_argsINS0_20basic_format_contextINS0_8appenderEcEEEE
   fun:print<std::__cxx11::basic_string<char, std::char_traits<char>, std::allocator<char> > >
}
{
   <insert_a_suppression_name_here>
   Memcheck:Cond
   fun:_IO_file_xsputn
   fun:fwrite
   fun:_ZN3fmt2v86vprintEP8_IO_FILENS0_17basic_string_viewIcEENS0_17basic_format_argsINS0_20basic_format_contextINS0_8appenderEcEEEE
   fun:print<std::__cxx11::basic_string<char, std::char_traits<char>, std::allocator<char> > >
}
{
   <insert_a_suppression_name_here>
   Memcheck:Value8
   fun:__memcpy_avx_unaligned_erms
   fun:_IO_file_xsputn
   fun:fwrite
   fun:_ZN3fmt2v86vprintEP8_IO_FILENS0_17basic_string_viewIcEENS0_17basic_format_argsINS0_20basic_format_contextINS0_8appenderEcEEEE
   fun:print<std::__cxx11::basic_string<char, std::char_traits<char>, std::allocator<char> > >
}
{
   <insert_a_suppression_name_here>
   Memcheck:Cond
   fun:_IO_file_overflow
   fun:_IO_file_xsputn
   fun:fwrite
   fun:_ZN3fmt2v86vprintEP8_IO_FILENS0_17basic_string_viewIcEENS0_17basic_format_argsINS0_20basic_format_contextINS0_8appenderEcEEEE
   fun:print<std::__cxx11::basic_string<char, std::char_traits<char>, std::allocator<char> > >
}
{
   <insert_a_suppression_name_here>
   Memcheck:Cond
   fun:_IO_do_write
   fun:_IO_file_xsputn
   fun:fwrite
   fun:_ZN3fmt2v86vprintEP8_IO_FILENS0_17basic_string_viewIcEENS0_17basic_format_argsINS0_20basic_format_contextINS0_8appenderEcEEEE
   fun:print<std::__cxx11::basic_string<char, std::char_traits<char>, std::allocator<char> > >
}
{
   <insert_a_suppression_name_here>
   Memcheck:Cond
   fun:_IO_file_write
   fun:_IO_do_write
   fun:_IO_file_xsputn
   fun:fwrite
   fun:_ZN3fmt2v86vprintEP8_IO_FILENS0_17basic_string_viewIcEENS0_17basic_format_argsINS0_20basic_format_contextINS0_8appenderEcEEEE
   fun:print<std::__cxx11::basic_string<char, std::char_traits<char>, std::allocator<char> > >
}
{
   <insert_a_suppression_name_here>
   Memcheck:Cond
   fun:write
   fun:_IO_file_write
   fun:_IO_do_write
   fun:_IO_file_xsputn
   fun:fwrite
   fun:_ZN3fmt2v86vprintEP8_IO_FILENS0_17basic_string_viewIcEENS0_17basic_format_argsINS0_20basic_format_contextINS0_8appenderEcEEEE
   fun:print<std::__cxx11::basic_string<char, std::char_traits<char>, std::allocator<char> > >
}
{
   <insert_a_suppression_name_here>
   Memcheck:Param
   write(buf)
   fun:write
   fun:_IO_file_write
   fun:_IO_do_write
   fun:_IO_file_xsputn
   fun:fwrite
   fun:_ZN3fmt2v86vprintEP8_IO_FILENS0_17basic_string_viewIcEENS0_17basic_format_argsINS0_20basic_format_contextINS0_8appenderEcEEEE
   fun:print<std::__cxx11::basic_string<char, std::char_traits<char>, std::allocator<char> > >
}
{
   <insert_a_suppression_name_here>
   Memcheck:Param
   write(count)
   fun:write
   fun:_IO_file_write
   fun:_IO_do_write
   fun:_IO_file_xsputn
   fun:fwrite
   fun:_ZN3fmt2v86vprintEP8_IO_FILENS0_17basic_string_viewIcEENS0_17basic_format_argsINS0_20basic_format_contextINS0_8appenderEcEEEE
   fun:print<std::__cxx11::basic_string<char, std::char_traits<char>, std::allocator<char> > >
}
{
   <insert_a_suppression_name_here>
   Memcheck:Cond
   fun:_IO_file_write
   fun:_IO_do_write
   fun:_IO_file_xsputn
   fun:fwrite
   fun:_ZN3fmt2v86vprintEP8_IO_FILENS0_17basic_string_viewIcEENS0_17basic_format_argsINS0_20basic_format_contextINS0_8appenderEcEEEE
   fun:print<std::__cxx11::basic_string<char, std::char_traits<char>, std::allocator<char> > >
}
{
   <insert_a_suppression_name_here>
   Memcheck:Cond
   fun:_IO_do_write
   fun:_IO_file_xsputn
   fun:fwrite
   fun:_ZN3fmt2v86vprintEP8_IO_FILENS0_17basic_string_viewIcEENS0_17basic_format_argsINS0_20basic_format_contextINS0_8appenderEcEEEE
   fun:print<std::__cxx11::basic_string<char, std::char_traits<char>, std::allocator<char> > >
}
{
   <insert_a_suppression_name_here>
   Memcheck:Cond
   fun:_IO_file_xsputn
   fun:fwrite
   fun:_ZN3fmt2v86vprintEP8_IO_FILENS0_17basic_string_viewIcEENS0_17basic_format_argsINS0_20basic_format_contextINS0_8appenderEcEEEE
   fun:print<std::__cxx11::basic_string<char, std::char_traits<char>, std::allocator<char> > >
}
{
   <insert_a_suppression_name_here>
   Memcheck:Cond
   fun:fwrite
   fun:_ZN3fmt2v86vprintEP8_IO_FILENS0_17basic_string_viewIcEENS0_17basic_format_argsINS0_20basic_format_contextINS0_8appenderEcEEEE
   fun:print<std::__cxx11::basic_string<char, std::char_traits<char>, std::allocator<char> > >
}
{
   <insert_a_suppression_name_here>
   Memcheck:Cond
   fun:_IO_file_xsputn
   fun:fwrite
   fun:_ZN3fmt2v86vprintEP8_IO_FILENS0_17basic_string_viewIcEENS0_17basic_format_argsINS0_20basic_format_contextINS0_8appenderEcEEEE
   fun:print<std::basic_string_view<char, std::char_traits<char> > >
}
{
   <insert_a_suppression_name_here>
   Memcheck:Cond
   fun:_IO_file_xsputn
   fun:fwrite
   fun:_ZN3fmt2v86vprintEP8_IO_FILENS0_17basic_string_viewIcEENS0_17basic_format_argsINS0_20basic_format_contextINS0_8appenderEcEEEE
   fun:print<std::basic_string_view<char, std::char_traits<char> > >
}
{
   <insert_a_suppression_name_here>
   Memcheck:Cond
   fun:fwrite
   fun:_ZN3fmt2v86vprintEP8_IO_FILENS0_17basic_string_viewIcEENS0_17basic_format_argsINS0_20basic_format_contextINS0_8appenderEcEEEE
   fun:print<std::basic_string_view<char, std::char_traits<char> > >
}
{
   <insert_a_suppression_name_here>
   Memcheck:Cond
   fun:__run_exit_handlers
   fun:exit
}
{
   <insert_a_suppression_name_here>
   Memcheck:Cond
   fun:fflush
   fun:_ZNSo5flushEv
   fun:_ZNSt8ios_base4InitD1Ev
   fun:__run_exit_handlers
   fun:exit
}
{
   <insert_a_suppression_name_here>
   Memcheck:Cond
   fun:_IO_file_sync
   fun:fflush
   fun:_ZNSo5flushEv
   fun:_ZNSt8ios_base4InitD1Ev
   fun:__run_exit_handlers
   fun:exit
}
{
   <insert_a_suppression_name_here>
   Memcheck:Cond
   fun:fflush
   fun:_ZNSt13basic_ostreamIwSt11char_traitsIwEE5flushEv
   fun:_ZNSt8ios_base4InitD1Ev
   fun:__run_exit_handlers
   fun:exit
}
{
   <insert_a_suppression_name_here>
   Memcheck:Cond
   fun:_IO_file_sync
   fun:fflush
   fun:_ZNSt13basic_ostreamIwSt11char_traitsIwEE5flushEv
   fun:_ZNSt8ios_base4InitD1Ev
   fun:__run_exit_handlers
   fun:exit
}
{
   <insert_a_suppression_name_here>
   Memcheck:Cond
   fun:_IO_flush_all_lockp
   fun:_IO_cleanup
   fun:__run_exit_handlers
   fun:exit
}
{
   <insert_a_suppression_name_here>
   Memcheck:Cond
   fun:_IO_cleanup
   fun:__run_exit_handlers
   fun:exit
}
{
   <insert_a_suppression_name_here>
   Memcheck:Cond
   fun:_IO_file_sync
   fun:_IO_default_setbuf
   fun:_IO_file_setbuf
   fun:_IO_cleanup
   fun:__run_exit_handlers
   fun:exit
}
{
   <insert_a_suppression_name_here>
   Memcheck:Cond
   fun:_IO_default_setbuf
   fun:_IO_file_setbuf
   fun:_IO_cleanup
   fun:__run_exit_handlers
   fun:exit
}
